; Function Attrs: cold nounwind optsize uwtable
define internal range(i32 -22, 1) i32 @mm_decode_init(ptr noundef %0) #0 {
  %2 = getelementptr inbounds nuw i8, ptr %0, i64 32
  %3 = load ptr, ptr %2, align 8, !tbaa !4
  store ptr %0, ptr %3, align 8, !tbaa !27
  %4 = getelementptr inbounds nuw i8, ptr %0, i64 136
  store i32 11, ptr %4, align 8, !tbaa !32
  %5 = getelementptr inbounds nuw i8, ptr %0, i64 112
  %6 = load i32, ptr %5, align 8, !tbaa !33
  %.not = icmp eq i32 %6, 0
  %.phi.trans.insert = getelementptr inbounds nuw i8, ptr %0, i64 116
  %.pre = load i32, ptr %.phi.trans.insert, align 4, !tbaa !34
  br i1 %.not, label %._crit_edge, label %7

7:                                                ; preds = %1
  %.not15 = icmp ne i32 %.pre, 0
  %8 = or i32 %.pre, %6
  %9 = and i32 %8, 1
  %10 = icmp eq i32 %9, 0
  %or.cond19 = and i1 %.not15, %10
  br i1 %or.cond19, label %11, label %._crit_edge

._crit_edge:                                      ; preds = %1, %7
  tail call void (ptr, i32, ptr, ...) @av_log(ptr noundef nonnull %0, i32 noundef 16, ptr noundef nonnull @.str.2, i32 noundef %6, i32 noundef %.pre) #7
  br label %14

11:                                               ; preds = %7
  %12 = tail call ptr @av_frame_alloc() #7
  %13 = getelementptr inbounds nuw i8, ptr %3, i64 8
  store ptr %12, ptr %13, align 8, !tbaa !35
  %.not18 = icmp eq ptr %12, null
  %. = select i1 %.not18, i32 -12, i32 0
  br label %14

14:                                               ; preds = %11, %._crit_edge
  %.0 = phi i32 [ -22, %._crit_edge ], [ %., %11 ]
  ret i32 %.0
}